; Function Attrs: mustprogress nofree norecurse nosync nounwind willreturn memory(read, inaccessiblemem: none) uwtable
define noundef zeroext i1 @_Z19gmx_mtop_has_massesPK10gmx_mtop_t(ptr noundef readonly %0) local_unnamed_addr #15 {
  %2 = icmp eq ptr %0, null
  br i1 %2, label %13, label %3

3:                                                ; preds = %1
  %4 = getelementptr inbounds nuw i8, ptr %0, i64 112
  %5 = load ptr, ptr %4, align 8, !tbaa !141
  %6 = getelementptr inbounds nuw i8, ptr %0, i64 120
  %7 = load ptr, ptr %6, align 8, !tbaa !141
  %8 = icmp eq ptr %5, %7
  br i1 %8, label %13, label %9

9:                                                ; preds = %3
  %10 = getelementptr inbounds nuw i8, ptr %5, i64 72
  %11 = load i8, ptr %10, align 8, !tbaa !142, !range !143, !noundef !144
  %12 = trunc nuw i8 %11 to i1
  br label %13

13:                                               ; preds = %3, %9, %1
  %.0 = phi i1 [ false, %1 ], [ true, %3 ], [ %12, %9 ]
  ret i1 %.0
}